; Function Attrs: nounwind uwtable
define hidden noundef ptr @SDL_CreateProcessWithProperties_REAL(i32 noundef %0) local_unnamed_addr #0 {
  %2 = tail call ptr @SDL_GetPointerProperty_REAL(i32 noundef %0, ptr noundef nonnull @.str.2, ptr noundef null) #3
  %.not = icmp eq ptr %2, null
  br i1 %.not, label %7, label %3

3:                                                ; preds = %1
  %4 = load ptr, ptr %2, align 8
  %.not21 = icmp eq ptr %4, null
  br i1 %.not21, label %7, label %5

5:                                                ; preds = %3
  %6 = load i8, ptr %4, align 1
  %.not22 = icmp eq i8 %6, 0
  br i1 %.not22, label %7, label %9

7:                                                ; preds = %5, %3, %1
  %8 = tail call zeroext i1 (ptr, ...) @SDL_SetError_REAL(ptr noundef nonnull @.str, ptr noundef nonnull @.str.5) #3
  br label %37

9:                                                ; preds = %5
  %10 = tail call noalias dereferenceable_or_null(24) ptr @SDL_calloc_REAL(i64 noundef 1, i64 noundef 24) #4
  %.not23 = icmp eq ptr %10, null
  br i1 %.not23, label %37, label %11

11:                                               ; preds = %9
  %12 = tail call zeroext i1 @SDL_GetBooleanProperty_REAL(i32 noundef %0, ptr noundef nonnull @.str.6, i1 noundef zeroext false) #3
  %13 = getelementptr inbounds nuw i8, ptr %10, i64 1
  %14 = zext i1 %12 to i8
  store i8 %14, ptr %13, align 1
  %15 = tail call i32 @SDL_CreateProperties_REAL() #3
  %16 = getelementptr inbounds nuw i8, ptr %10, i64 8
  store i32 %15, ptr %16, align 8
  %.not24 = icmp eq i32 %15, 0
  br i1 %.not24, label %17, label %25

17:                                               ; preds = %11
  %18 = load i8, ptr %10, align 8, !range !3, !noundef !4
  %19 = trunc nuw i8 %18 to i1
  br i1 %19, label %20, label %SDL_DestroyProcess_REAL.exit

20:                                               ; preds = %17
  %21 = getelementptr inbounds nuw i8, ptr %10, i64 4
  %22 = tail call zeroext i1 @SDL_SYS_WaitProcess(ptr noundef nonnull %10, i1 noundef zeroext false, ptr noundef nonnull %21) #3
  br i1 %22, label %23, label %SDL_DestroyProcess_REAL.exit

23:                                               ; preds = %20
  store i8 0, ptr %10, align 8
  br label %SDL_DestroyProcess_REAL.exit

SDL_DestroyProcess_REAL.exit:                     ; preds = %17, %20, %23
  tail call void @SDL_SYS_DestroyProcess(ptr noundef nonnull %10) #3
  %24 = load i32, ptr %16, align 8
  tail call void @SDL_DestroyProperties_REAL(i32 noundef %24) #3
  tail call void @SDL_free_REAL(ptr noundef nonnull %10) #3
  br label %37

25:                                               ; preds = %11
  %26 = tail call zeroext i1 @SDL_SetBooleanProperty_REAL(i32 noundef %15, ptr noundef nonnull @.str.7, i1 noundef zeroext %12) #3
  %27 = tail call zeroext i1 @SDL_SYS_CreateProcessWithProperties(ptr noundef nonnull %10, i32 noundef %0) #3
  br i1 %27, label %36, label %28

28:                                               ; preds = %25
  %29 = load i8, ptr %10, align 8, !range !3, !noundef !4
  %30 = trunc nuw i8 %29 to i1
  br i1 %30, label %31, label %SDL_DestroyProcess_REAL.exit27

31:                                               ; preds = %28
  %32 = getelementptr inbounds nuw i8, ptr %10, i64 4
  %33 = tail call zeroext i1 @SDL_SYS_WaitProcess(ptr noundef nonnull %10, i1 noundef zeroext false, ptr noundef nonnull %32) #3
  br i1 %33, label %34, label %SDL_DestroyProcess_REAL.exit27

34:                                               ; preds = %31
  store i8 0, ptr %10, align 8
  br label %SDL_DestroyProcess_REAL.exit27

SDL_DestroyProcess_REAL.exit27:                   ; preds = %28, %31, %34
  tail call void @SDL_SYS_DestroyProcess(ptr noundef nonnull %10) #3
  %35 = load i32, ptr %16, align 8
  tail call void @SDL_DestroyProperties_REAL(i32 noundef %35) #3
  tail call void @SDL_free_REAL(ptr noundef nonnull %10) #3
  br label %37

36:                                               ; preds = %25
  store i8 1, ptr %10, align 8
  br label %37

37:                                               ; preds = %SDL_DestroyProcess_REAL.exit, %SDL_DestroyProcess_REAL.exit27, %36, %9, %7
  %.0 = phi ptr [ null, %7 ], [ %10, %36 ], [ null, %SDL_DestroyProcess_REAL.exit27 ], [ null, %SDL_DestroyProcess_REAL.exit ], [ null, %9 ]
  ret ptr %.0
}